; Function Attrs: nounwind uwtable
define internal i32 @filter_frame(ptr noundef readonly captures(none) %0, ptr noundef %1) #1 {
  %3 = alloca ptr, align 8
  %4 = alloca %struct.ThreadData, align 8
  store ptr %1, ptr %3, align 8, !tbaa !27
  %5 = getelementptr inbounds nuw i8, ptr %0, i64 16
  %6 = load ptr, ptr %5, align 8, !tbaa !29
  %7 = getelementptr inbounds nuw i8, ptr %6, i64 72
  %8 = load ptr, ptr %7, align 8, !tbaa !4
  %9 = getelementptr inbounds nuw i8, ptr %6, i64 56
  %10 = load ptr, ptr %9, align 8, !tbaa !38
  %11 = load ptr, ptr %10, align 8, !tbaa !25
  call void @llvm.lifetime.start.p0(i64 16, ptr nonnull %4) #11
  %12 = getelementptr inbounds nuw i8, ptr %11, i64 40
  %13 = load i32, ptr %12, align 8, !tbaa !39
  %14 = getelementptr inbounds nuw i8, ptr %11, i64 44
  %15 = load i32, ptr %14, align 4, !tbaa !40
  %16 = tail call ptr @ff_get_video_buffer(ptr noundef %11, i32 noundef %13, i32 noundef %15) #11
  %.not = icmp eq ptr %16, null
  br i1 %.not, label %17, label %18

17:                                               ; preds = %2
  call void @av_frame_free(ptr noundef nonnull %3) #11
  br label %26

18:                                               ; preds = %2
  %19 = tail call i32 @av_frame_copy_props(ptr noundef nonnull %16, ptr noundef %1) #11
  %20 = getelementptr inbounds nuw i8, ptr %4, i64 8
  store ptr %16, ptr %20, align 8, !tbaa !41
  store ptr %1, ptr %4, align 8, !tbaa !43
  %21 = getelementptr inbounds nuw i8, ptr %8, i64 68
  %22 = load i32, ptr %21, align 4, !tbaa !44
  %23 = tail call i32 @ff_filter_get_nb_threads(ptr noundef nonnull %6) #12
  %. = tail call i32 @llvm.smin.i32(i32 %22, i32 %23)
  %24 = call i32 @ff_filter_execute(ptr noundef nonnull %6, ptr noundef nonnull @filter_slice, ptr noundef nonnull %4, ptr noundef null, i32 noundef %.) #11
  call void @av_frame_free(ptr noundef nonnull %3) #11
  %25 = call i32 @ff_filter_frame(ptr noundef nonnull %11, ptr noundef nonnull %16) #11
  br label %26

26:                                               ; preds = %18, %17
  %.0 = phi i32 [ %25, %18 ], [ -12, %17 ]
  call void @llvm.lifetime.end.p0(i64 16, ptr nonnull %4) #11
  ret i32 %.0
}